target datalayout = "e-m:e-p270:32:32-p271:32:32-p272:64:64-i64:64-i128:128-f80:128-n8:16:32:64-S128"
target triple = "x86_64-pc-linux-gnu"

@H5G_init_g = external global i8, align 1
@H5_libterm_g = external global i8, align 1
@.str = private unnamed_addr constant [104 x i8] c"generated/home/dtcxzyw/WorkSpace/Projects/compilers/llvm-opt-benchmark/bench/hdf5/hdf5/src/H5Gcompact.c\00", align 1
@__func__.H5G__compact_insert = private unnamed_addr constant [20 x i8] c"H5G__compact_insert\00", align 1
@H5E_SYM_g = external global i64, align 8
@H5E_CANTINIT_g = external global i64, align 8
@.str.1 = private unnamed_addr constant [21 x i8] c"can't create message\00", align 1

; Function Attrs: nounwind uwtable
define i32 @H5G__compact_insert(ptr noundef %0, ptr noundef %1) #0 {
  %3 = alloca ptr, align 8
  %4 = alloca ptr, align 8
  %5 = alloca i32, align 4
  %6 = alloca i8, align 1
  store ptr %0, ptr %3, align 8, !tbaa !3
  store ptr %1, ptr %4, align 8, !tbaa !8
  call void @llvm.lifetime.start.p0(i64 4, ptr %5) #8
  store i32 0, ptr %5, align 4, !tbaa !10
  call void @llvm.lifetime.start.p0(i64 1, ptr %6) #8
  store i8 0, ptr %6, align 1, !tbaa !12
  %7 = load i8, ptr @H5G_init_g, align 1, !tbaa !12, !range !14, !noundef !15
  %8 = trunc i8 %7 to i1
  br i1 %8, label %13, label %9

9:                                                ; preds = %2
  %10 = load i8, ptr @H5_libterm_g, align 1, !tbaa !12, !range !14, !noundef !15
  %11 = trunc i8 %10 to i1
  %12 = xor i1 %11, true
  br label %13

13:                                               ; preds = %9, %2
  %14 = phi i1 [ true, %2 ], [ %12, %9 ]
  %15 = xor i1 %14, true
  %16 = xor i1 %15, true
  %17 = zext i1 %16 to i32
  %18 = sext i32 %17 to i64
  %19 = call i64 @llvm.expect.i64(i64 %18, i64 1)
  %20 = icmp ne i64 %19, 0
  br i1 %20, label %21, label %47

21:                                               ; preds = %13
  %22 = load ptr, ptr %3, align 8, !tbaa !3
  %23 = load ptr, ptr %4, align 8, !tbaa !8
  %24 = call i32 @H5O_msg_create(ptr noundef %22, i32 noundef 6, i32 noundef 0, i32 noundef 1, ptr noundef %23)
  %25 = icmp slt i32 %24, 0
  br i1 %25, label %26, label %45

26:                                               ; preds = %21
  br label %27

27:                                               ; preds = %26
  br label %28

28:                                               ; preds = %27
  br label %29

29:                                               ; preds = %28
  %30 = load i64, ptr @H5E_SYM_g, align 8, !tbaa !16
  %31 = load i64, ptr @H5E_CANTINIT_g, align 8, !tbaa !16
  %32 = call i32 (ptr, ptr, i32, i64, i64, ptr, ...) @H5E_printf_stack(ptr noundef @.str, ptr noundef @__func__.H5G__compact_insert, i32 noundef 180, i64 noundef %30, i64 noundef %31, ptr noundef @.str.1)
  br label %33

33:                                               ; preds = %29
  br label %34

34:                                               ; preds = %33
  store i8 1, ptr %6, align 1, !tbaa !12
  %35 = load i8, ptr %6, align 1, !tbaa !12, !range !14, !noundef !15
  %36 = trunc i8 %35 to i1
  %37 = zext i1 %36 to i8
  store i8 %37, ptr %6, align 1, !tbaa !12
  br label %38

38:                                               ; preds = %34
  br label %39

39:                                               ; preds = %38
  br label %40

40:                                               ; preds = %39
  store i32 -1, ptr %5, align 4, !tbaa !10
  br label %46

41:                                               ; No predecessors!
  br label %42

42:                                               ; preds = %41
  br label %43

43:                                               ; preds = %42
  br label %44

44:                                               ; preds = %43
  br label %45

45:                                               ; preds = %44, %21
  br label %46

46:                                               ; preds = %45, %40
  br label %47

47:                                               ; preds = %46, %13
  %48 = load i32, ptr %5, align 4, !tbaa !10
  call void @llvm.lifetime.end.p0(i64 1, ptr %6) #8
  call void @llvm.lifetime.end.p0(i64 4, ptr %5) #8
  ret i32 %48
}